; ModuleID = '23/241.c'
source_filename = "23/241.c"
target datalayout = "e-m:e-p270:32:32-p271:32:32-p272:64:64-i64:64-f80:128-n8:16:32:64-S128"
target triple = "x86_64-pc-linux-gnu"

@.str = private unnamed_addr constant [3 x i8] c"%c\00", align 1

; Function Attrs: noinline nounwind uwtable
define dso_local i32 @main() #0 {
  %1 = alloca i32, align 4
  %2 = alloca [200 x i8], align 16
  %3 = alloca i8, align 1
  %4 = alloca [200 x i32], align 16
  %5 = alloca i32, align 4
  %6 = alloca i32, align 4
  %7 = alloca i32, align 4
  %8 = alloca i32, align 4
  %9 = alloca i32, align 4
  %10 = alloca i32, align 4
  store i32 0, i32* %1, align 4
  %11 = getelementptr inbounds [200 x i8], [200 x i8]* %2, i64 0, i64 0
  %12 = call i32 (i8*, ...) bitcast (i32 (...)* @gets to i32 (i8*, ...)*)(i8* %11)
  %13 = getelementptr inbounds [200 x i8], [200 x i8]* %2, i64 0, i64 0
  %14 = call i64 @strlen(i8* %13) #3
  %15 = trunc i64 %14 to i32
  store i32 %15, i32* %8, align 4
  store i32 0, i32* %9, align 4
  store i32 0, i32* %7, align 4
  br label %16

16:                                               ; preds = %35, %0
  %17 = load i32, i32* %7, align 4
  %18 = load i32, i32* %8, align 4
  %19 = icmp slt i32 %17, %18
  br i1 %19, label %20, label %38

20:                                               ; preds = %16
  %21 = load i32, i32* %7, align 4
  %22 = sext i32 %21 to i64
  %23 = getelementptr inbounds [200 x i8], [200 x i8]* %2, i64 0, i64 %22
  %24 = load i8, i8* %23, align 1
  %25 = sext i8 %24 to i32
  %26 = icmp eq i32 %25, 32
  br i1 %26, label %27, label %34

27:                                               ; preds = %20
  %28 = load i32, i32* %9, align 4
  %29 = add nsw i32 %28, 1
  store i32 %29, i32* %9, align 4
  %30 = load i32, i32* %7, align 4
  %31 = load i32, i32* %9, align 4
  %32 = sext i32 %31 to i64
  %33 = getelementptr inbounds [200 x i32], [200 x i32]* %4, i64 0, i64 %32
  store i32 %30, i32* %33, align 4
  br label %34

34:                                               ; preds = %27, %20
  br label %35

35:                                               ; preds = %34
  %36 = load i32, i32* %7, align 4
  %37 = add nsw i32 %36, 1
  store i32 %37, i32* %7, align 4
  br label %16

38:                                               ; preds = %16
  store i32 1, i32* %7, align 4
  br label %39

39:                                               ; preds = %106, %38
  %40 = load i32, i32* %7, align 4
  %41 = load i32, i32* %9, align 4
  %42 = add nsw i32 %41, 1
  %43 = icmp sle i32 %40, %42
  br i1 %43, label %44, label %109

44:                                               ; preds = %39
  %45 = load i32, i32* %7, align 4
  %46 = icmp eq i32 %45, 1
  br i1 %46, label %47, label %48

47:                                               ; preds = %44
  store i32 0, i32* %5, align 4
  br label %55

48:                                               ; preds = %44
  %49 = load i32, i32* %7, align 4
  %50 = sub nsw i32 %49, 1
  %51 = sext i32 %50 to i64
  %52 = getelementptr inbounds [200 x i32], [200 x i32]* %4, i64 0, i64 %51
  %53 = load i32, i32* %52, align 4
  %54 = add nsw i32 %53, 1
  store i32 %54, i32* %5, align 4
  br label %55

55:                                               ; preds = %48, %47
  %56 = load i32, i32* %7, align 4
  %57 = load i32, i32* %9, align 4
  %58 = add nsw i32 %57, 1
  %59 = icmp eq i32 %56, %58
  br i1 %59, label %60, label %63

60:                                               ; preds = %55
  %61 = load i32, i32* %8, align 4
  %62 = sub nsw i32 %61, 1
  store i32 %62, i32* %6, align 4
  br label %69

63:                                               ; preds = %55
  %64 = load i32, i32* %7, align 4
  %65 = sext i32 %64 to i64
  %66 = getelementptr inbounds [200 x i32], [200 x i32]* %4, i64 0, i64 %65
  %67 = load i32, i32* %66, align 4
  %68 = sub nsw i32 %67, 1
  store i32 %68, i32* %6, align 4
  br label %69

69:                                               ; preds = %63, %60
  store i32 0, i32* %10, align 4
  br label %70

70:                                               ; preds = %102, %69
  %71 = load i32, i32* %5, align 4
  %72 = load i32, i32* %10, align 4
  %73 = add nsw i32 %71, %72
  %74 = load i32, i32* %6, align 4
  %75 = load i32, i32* %10, align 4
  %76 = sub nsw i32 %74, %75
  %77 = icmp slt i32 %73, %76
  br i1 %77, label %78, label %105

78:                                               ; preds = %70
  %79 = load i32, i32* %5, align 4
  %80 = load i32, i32* %10, align 4
  %81 = add nsw i32 %79, %80
  %82 = sext i32 %81 to i64
  %83 = getelementptr inbounds [200 x i8], [200 x i8]* %2, i64 0, i64 %82
  %84 = load i8, i8* %83, align 1
  store i8 %84, i8* %3, align 1
  %85 = load i32, i32* %6, align 4
  %86 = load i32, i32* %10, align 4
  %87 = sub nsw i32 %85, %86
  %88 = sext i32 %87 to i64
  %89 = getelementptr inbounds [200 x i8], [200 x i8]* %2, i64 0, i64 %88
  %90 = load i8, i8* %89, align 1
  %91 = load i32, i32* %5, align 4
  %92 = load i32, i32* %10, align 4
  %93 = add nsw i32 %91, %92
  %94 = sext i32 %93 to i64
  %95 = getelementptr inbounds [200 x i8], [200 x i8]* %2, i64 0, i64 %94
  store i8 %90, i8* %95, align 1
  %96 = load i8, i8* %3, align 1
  %97 = load i32, i32* %6, align 4
  %98 = load i32, i32* %10, align 4
  %99 = sub nsw i32 %97, %98
  %100 = sext i32 %99 to i64
  %101 = getelementptr inbounds [200 x i8], [200 x i8]* %2, i64 0, i64 %100
  store i8 %96, i8* %101, align 1
  br label %102

102:                                              ; preds = %78
  %103 = load i32, i32* %10, align 4
  %104 = add nsw i32 %103, 1
  store i32 %104, i32* %10, align 4
  br label %70

105:                                              ; preds = %70
  br label %106

106:                                              ; preds = %105
  %107 = load i32, i32* %7, align 4
  %108 = add nsw i32 %107, 1
  store i32 %108, i32* %7, align 4
  br label %39

109:                                              ; preds = %39
  %110 = load i32, i32* %8, align 4
  %111 = sub nsw i32 %110, 1
  store i32 %111, i32* %7, align 4
  br label %112

112:                                              ; preds = %122, %109
  %113 = load i32, i32* %7, align 4
  %114 = icmp sge i32 %113, 0
  br i1 %114, label %115, label %125

115:                                              ; preds = %112
  %116 = load i32, i32* %7, align 4
  %117 = sext i32 %116 to i64
  %118 = getelementptr inbounds [200 x i8], [200 x i8]* %2, i64 0, i64 %117
  %119 = load i8, i8* %118, align 1
  %120 = sext i8 %119 to i32
  %121 = call i32 (i8*, ...) @printf(i8* getelementptr inbounds ([3 x i8], [3 x i8]* @.str, i64 0, i64 0), i32 %120)
  br label %122

122:                                              ; preds = %115
  %123 = load i32, i32* %7, align 4
  %124 = add nsw i32 %123, -1
  store i32 %124, i32* %7, align 4
  br label %112

125:                                              ; preds = %112
  ret i32 0
}

declare dso_local i32 @gets(...) #1

; Function Attrs: nounwind readonly
declare dso_local i64 @strlen(i8*) #2

declare dso_local i32 @printf(i8*, ...) #1


!llvm.module.flags = !{!0}
!llvm.ident = !{!1}

!0 = !{i32 1, !"wchar_size", i32 4}
!1 = !{!"clang version 10.0.0-4ubuntu1 "}
